target datalayout = "e-m:e-p270:32:32-p271:32:32-p272:64:64-i64:64-i128:128-f80:128-n8:16:32:64-S128"
target triple = "x86_64-pc-linux-gnu"

%"class.std::__cxx11::basic_string" = type { %"struct.std::__cxx11::basic_string<char>::_Alloc_hider", i64, %union.anon }
%"struct.std::__cxx11::basic_string<char>::_Alloc_hider" = type { ptr }
%union.anon = type { i64, [8 x i8] }
%"class.std::allocator" = type { i8 }
%"class.std::__shared_count" = type { ptr }
%"class.cv::FileStorage" = type { ptr, i32, %"class.std::__cxx11::basic_string", %"struct.cv::Ptr.12" }
%"struct.cv::Ptr.12" = type { %"class.std::shared_ptr.13" }
%"class.std::shared_ptr.13" = type { %"class.std::__shared_ptr.14" }
%"class.std::__shared_ptr.14" = type { ptr, %"class.std::__shared_count" }

@.str.120 = private unnamed_addr constant [31 x i8] c"No element name has been given\00", align 1
@__func__._ZN2cvlsIiEERNS_11FileStorageES2_RKT_ = private unnamed_addr constant [11 x i8] c"operator<<\00", align 1
@.str.121 = private unnamed_addr constant [141 x i8] c"generated/home/dtcxzyw/WorkSpace/Projects/compilers/llvm-opt-benchmark/bench/opencv/opencv/modules/core/include/opencv2/core/persistence.hpp\00", align 1

; Function Attrs: mustprogress uwtable
define internal noundef nonnull align 8 dereferenceable(64) ptr @_ZN2cvlsIiEERNS_11FileStorageES2_RKT_(ptr noundef nonnull align 8 dereferenceable(64) %0, ptr noundef nonnull align 4 dereferenceable(4) %1) #6 personality ptr @__gxx_personality_v0 {
  %3 = alloca ptr, align 8
  %4 = alloca ptr, align 8
  %5 = alloca ptr, align 8
  %6 = alloca %"class.std::__cxx11::basic_string", align 8
  %7 = alloca %"class.std::allocator", align 1
  %8 = alloca ptr, align 8
  %9 = alloca i32, align 4
  store ptr %0, ptr %4, align 8
  store ptr %1, ptr %5, align 8
  %10 = load ptr, ptr %4, align 8
  %11 = load ptr, ptr %10, align 8
  %12 = getelementptr inbounds ptr, ptr %11, i64 3
  %13 = load ptr, ptr %12, align 8
  %14 = call noundef zeroext i1 %13(ptr noundef nonnull align 8 dereferenceable(64) %10)
  br i1 %14, label %17, label %15

15:                                               ; preds = %2
  %16 = load ptr, ptr %4, align 8
  store ptr %16, ptr %3, align 8
  br label %50

17:                                               ; preds = %2
  %18 = load ptr, ptr %4, align 8
  %19 = getelementptr inbounds %"class.cv::FileStorage", ptr %18, i32 0, i32 1
  %20 = load i32, ptr %19, align 8
  %21 = icmp eq i32 %20, 6
  br i1 %21, label %22, label %34

22:                                               ; preds = %17
  call void @_ZNSaIcEC1Ev(ptr noundef nonnull align 1 dereferenceable(1) %7) #3
  invoke void @_ZNSt7__cxx1112basic_stringIcSt11char_traitsIcESaIcEEC1EPKcRKS3_(ptr noundef nonnull align 8 dereferenceable(32) %6, ptr noundef @.str.120, ptr noundef nonnull align 1 dereferenceable(1) %7)
          to label %23 unwind label %25

23:                                               ; preds = %22
  invoke void @_ZN2cv5errorEiRKNSt7__cxx1112basic_stringIcSt11char_traitsIcESaIcEEEPKcS9_i(i32 noundef -2, ptr noundef nonnull align 8 dereferenceable(32) %6, ptr noundef @__func__._ZN2cvlsIiEERNS_11FileStorageES2_RKT_, ptr noundef @.str.121, i32 noundef 1201) #18
          to label %24 unwind label %29

24:                                               ; preds = %23
  unreachable

25:                                               ; preds = %22
  %26 = landingpad { ptr, i32 }
          cleanup
  %27 = extractvalue { ptr, i32 } %26, 0
  store ptr %27, ptr %8, align 8
  %28 = extractvalue { ptr, i32 } %26, 1
  store i32 %28, ptr %9, align 4
  br label %33

29:                                               ; preds = %23
  %30 = landingpad { ptr, i32 }
          cleanup
  %31 = extractvalue { ptr, i32 } %30, 0
  store ptr %31, ptr %8, align 8
  %32 = extractvalue { ptr, i32 } %30, 1
  store i32 %32, ptr %9, align 4
  call void @_ZNSt7__cxx1112basic_stringIcSt11char_traitsIcESaIcEED1Ev(ptr noundef nonnull align 8 dereferenceable(32) %6) #3
  br label %33

33:                                               ; preds = %29, %25
  call void @_ZNSaIcED1Ev(ptr noundef nonnull align 1 dereferenceable(1) %7) #3
  br label %52

34:                                               ; preds = %17
  %35 = load ptr, ptr %4, align 8
  %36 = load ptr, ptr %4, align 8
  %37 = getelementptr inbounds %"class.cv::FileStorage", ptr %36, i32 0, i32 2
  %38 = load ptr, ptr %5, align 8
  %39 = load i32, ptr %38, align 4
  call void @_ZN2cv5writeERNS_11FileStorageERKNSt7__cxx1112basic_stringIcSt11char_traitsIcESaIcEEEi(ptr noundef nonnull align 8 dereferenceable(64) %35, ptr noundef nonnull align 8 dereferenceable(32) %37, i32 noundef %39)
  %40 = load ptr, ptr %4, align 8
  %41 = getelementptr inbounds %"class.cv::FileStorage", ptr %40, i32 0, i32 1
  %42 = load i32, ptr %41, align 8
  %43 = and i32 %42, 4
  %44 = icmp ne i32 %43, 0
  br i1 %44, label %45, label %48

45:                                               ; preds = %34
  %46 = load ptr, ptr %4, align 8
  %47 = getelementptr inbounds %"class.cv::FileStorage", ptr %46, i32 0, i32 1
  store i32 6, ptr %47, align 8
  br label %48

48:                                               ; preds = %45, %34
  %49 = load ptr, ptr %4, align 8
  store ptr %49, ptr %3, align 8
  br label %50

50:                                               ; preds = %48, %15
  %51 = load ptr, ptr %3, align 8
  ret ptr %51

52:                                               ; preds = %33
  %53 = load ptr, ptr %8, align 8
  %54 = load i32, ptr %9, align 4
  %55 = insertvalue { ptr, i32 } poison, ptr %53, 0
  %56 = insertvalue { ptr, i32 } %55, i32 %54, 1
  resume { ptr, i32 } %56
}